(dp1
I18
(dp2
S'becameSuitTime'
p3
F1412050013.013
sS'savedBy'
p4
NsS'track'
p5
S'm'
sS'numFloors'
p6
I4
sS'difficulty'
p7
I4
sS'state'
p8
S'suit'
p9
sS'block'
p10
I18
ssI36
(dp11
g3
F1412050013.0139999
sg4
Nsg5
S'm'
sg6
I5
sg7
I6
sg8
g9
sg10
I36
ssI31
(dp12
g3
F1412050013.0120001
sg4
Nsg5
S'm'
sg6
I2
sg7
I3
sg8
g9
sg10
I31
ss.