(dp1
I40
(dp2
S'becameSuitTime'
p3
F1414613877.5150001
sS'savedBy'
p4
NsS'track'
p5
S'l'
sS'numFloors'
p6
I2
sS'difficulty'
p7
I1
sS'state'
p8
S'suit'
p9
sS'block'
p10
I40
ssI14
(dp11
g3
F1414613719.289
sg4
Nsg5
S'l'
sg6
I1
sg7
I2
sg8
g9
sg10
I14
ssI47
(dp12
g3
F1414613664.0910001
sg4
Nsg5
S'm'
sg6
I1
sg7
I1
sg8
g9
sg10
I47
ss.