(dp1
I16
(dp2
S'becameSuitTime'
p3
F1412050029.9119999
sS'savedBy'
p4
NsS'track'
p5
S'l'
sS'numFloors'
p6
I1
sS'difficulty'
p7
I9
sS'state'
p8
S'suit'
p9
sS'block'
p10
I16
ssI20
(dp11
g3
F1412050029.9089999
sg4
Nsg5
S'l'
sg6
I5
sg7
I8
sg8
g9
sg10
I20
ssI10
(dp12
g3
F1412050029.9130001
sg4
Nsg5
S'l'
sg6
I5
sg7
I7
sg8
g9
sg10
I10
ssI12
(dp13
g3
F1412050029.9100001
sg4
Nsg5
S'l'
sg6
I5
sg7
I8
sg8
g9
sg10
I12
ssI29
(dp14
g3
F1412050029.911
sg4
Nsg5
S'l'
sg6
I1
sg7
I9
sg8
g9
sg10
I29
ss.