(dp1
I32
(dp2
S'becameSuitTime'
p3
F1412050011.152
sS'savedBy'
p4
NsS'track'
p5
S's'
sS'numFloors'
p6
I2
sS'difficulty'
p7
I4
sS'state'
p8
S'becomingSuit'
p9
sS'block'
p10
I32
ssI11
(dp11
g3
F1412050011.1530001
sg4
Nsg5
S'm'
sg6
I3
sg7
I3
sg8
S'suit'
p12
sg10
I11
ssI12
(dp13
g3
F1412050011.151
sg4
Nsg5
S's'
sg6
I3
sg7
I3
sg8
g12
sg10
I12
ss.