(dp1
I36
(dp2
S'becameSuitTime'
p3
F1412049998.9790001
sS'savedBy'
p4
NsS'track'
p5
S'l'
sS'numFloors'
p6
I2
sS'difficulty'
p7
I4
sS'state'
p8
S'suit'
p9
sS'block'
p10
I36
ssI21
(dp11
g3
F1412049998.98
sg4
Nsg5
S's'
sg6
I2
sg7
I4
sg8
g9
sg10
I21
ss.