(dp1
I17
(dp2
S'becameSuitTime'
p3
F1412050028.125
sS'savedBy'
p4
NsS'track'
p5
S'm'
sS'numFloors'
p6
I3
sS'difficulty'
p7
I5
sS'state'
p8
S'suit'
p9
sS'block'
p10
I17
ssI11
(dp11
g3
F1412050028.1259999
sg4
Nsg5
S's'
sg6
I3
sg7
I6
sg8
g9
sg10
I11
ssI38
(dp12
g3
F1412050028.1270001
sg4
Nsg5
S'm'
sg6
I4
sg7
I5
sg8
g9
sg10
I38
ss.