(dp1
I24
(dp2
S'becameSuitTime'
p3
F1412902973.424
sS'savedBy'
p4
NsS'track'
p5
S'c'
sS'numFloors'
p6
I1
sS'difficulty'
p7
I0
sS'state'
p8
S'suit'
p9
sS'block'
p10
I24
ssI29
(dp11
g3
F1412900281.066
sg4
Nsg5
S's'
sg6
I3
sg7
I2
sg8
g9
sg10
I29
ssI37
(dp12
g3
F1403463159.4809999
sg4
Nsg5
S's'
sg6
I1
sg7
I1
sg8
g9
sg10
I37
ss.